; Function Attrs: mustprogress nounwind uwtable
define internal fastcc noundef range(i32 0, 4) i32 @_ZL27DecodeZPR2Mul2RegisterClassRN4llvm6MCInstEjmPKv(ptr noundef nonnull align 8 dereferenceable(128) %0, i32 noundef %1) unnamed_addr #0 {
  %3 = shl i32 %1, 1
  %4 = icmp ugt i32 %3, 30
  br i1 %4, label %21, label %5

5:                                                ; preds = %2
  %6 = load ptr, ptr getelementptr inbounds nuw (i8, ptr @_ZN4llvm24AArch64MCRegisterClassesE, i64 3232), align 8
  %7 = zext nneg i32 %3 to i64
  %8 = getelementptr inbounds nuw i16, ptr %6, i64 %7
  %9 = load i16, ptr %8, align 2
  %.sroa.3.8.insert.ext.i = zext i16 %9 to i64
  %10 = getelementptr inbounds nuw i8, ptr %0, i64 16
  %11 = tail call noundef i64 @_ZNK4llvm15SmallVectorBaseIjE4sizeEv(ptr noundef nonnull align 8 dereferenceable(16) %10) #13
  %12 = add i64 %11, 1
  %13 = tail call noundef i64 @_ZNK4llvm15SmallVectorBaseIjE8capacityEv(ptr noundef nonnull align 8 dereferenceable(16) %10) #13
  %.not.i.i.i.i = icmp ugt i64 %12, %13
  br i1 %.not.i.i.i.i, label %14, label %_ZN4llvm6MCInst10addOperandENS_9MCOperandE.exit

14:                                               ; preds = %5
  %15 = getelementptr inbounds nuw i8, ptr %0, i64 32
  tail call void @_ZN4llvm15SmallVectorBaseIjE8grow_podEPvmm(ptr noundef nonnull align 8 dereferenceable(16) %10, ptr noundef nonnull %15, i64 noundef %12, i64 noundef 16) #13
  br label %_ZN4llvm6MCInst10addOperandENS_9MCOperandE.exit

_ZN4llvm6MCInst10addOperandENS_9MCOperandE.exit:  ; preds = %5, %14
  %16 = load ptr, ptr %10, align 8
  %17 = tail call noundef i64 @_ZNK4llvm15SmallVectorBaseIjE4sizeEv(ptr noundef nonnull align 8 dereferenceable(16) %10) #13
  %18 = getelementptr inbounds %"class.llvm::MCOperand", ptr %16, i64 %17
  store i8 1, ptr %18, align 1
  %.sroa.22.0..sroa_idx.i.i = getelementptr inbounds nuw i8, ptr %18, i64 8
  store i64 %.sroa.3.8.insert.ext.i, ptr %.sroa.22.0..sroa_idx.i.i, align 1
  %19 = tail call noundef i64 @_ZNK4llvm15SmallVectorBaseIjE4sizeEv(ptr noundef nonnull align 8 dereferenceable(16) %10) #13
  %20 = add i64 %19, 1
  tail call void @_ZN4llvm15SmallVectorBaseIjE8set_sizeEm(ptr noundef nonnull align 8 dereferenceable(16) %10, i64 noundef %20) #13
  br label %21

21:                                               ; preds = %2, %_ZN4llvm6MCInst10addOperandENS_9MCOperandE.exit
  %.0 = phi i32 [ 3, %_ZN4llvm6MCInst10addOperandENS_9MCOperandE.exit ], [ 0, %2 ]
  ret i32 %.0
}